; Function Attrs: mustprogress nounwind uwtable
define dso_local noundef zeroext i1 @_ZN4llvm23ObjectSizeOffsetVisitor18CheckedZextOrTruncERNS_5APIntE(ptr nocapture noundef nonnull readonly align 8 dereferenceable(388) %0, ptr noundef nonnull align 8 dereferenceable(12) %1) local_unnamed_addr #0 align 2 {
  %3 = alloca %"class.llvm::APInt", align 8
  %4 = getelementptr inbounds nuw i8, ptr %0, i64 32
  %5 = load i32, ptr %4, align 8
  call void @llvm.lifetime.start.p0(i64 16, ptr nonnull %3)
  %6 = getelementptr inbounds nuw i8, ptr %1, i64 8
  %7 = load i32, ptr %6, align 8
  %8 = icmp ugt i32 %7, %5
  br i1 %8, label %9, label %20

9:                                                ; preds = %2
  %10 = icmp ult i32 %7, 65
  br i1 %10, label %11, label %16

11:                                               ; preds = %9
  %.neg.i.i.i = add nsw i32 %7, -64
  %12 = load i64, ptr %1, align 8
  %13 = tail call range(i64 0, 65) i64 @llvm.ctlz.i64(i64 %12, i1 false)
  %14 = trunc nuw nsw i64 %13 to i32
  %15 = add nsw i32 %.neg.i.i.i, %14
  br label %_ZNK4llvm5APInt13getActiveBitsEv.exit.i

16:                                               ; preds = %9
  %17 = tail call noundef i32 @_ZNK4llvm5APInt25countLeadingZerosSlowCaseEv(ptr noundef nonnull align 8 dereferenceable(12) %1) #21
  br label %_ZNK4llvm5APInt13getActiveBitsEv.exit.i

_ZNK4llvm5APInt13getActiveBitsEv.exit.i:          ; preds = %16, %11
  %.0.i.i.i = phi i32 [ %15, %11 ], [ %17, %16 ]
  %18 = sub i32 %7, %.0.i.i.i
  %19 = icmp ugt i32 %18, %5
  br i1 %19, label %_ZL18CheckedZextOrTruncRN4llvm5APIntEj.exit, label %20

20:                                               ; preds = %_ZNK4llvm5APInt13getActiveBitsEv.exit.i, %2
  %.not.i = icmp eq i32 %7, %5
  br i1 %.not.i, label %_ZL18CheckedZextOrTruncRN4llvm5APIntEj.exit, label %21

21:                                               ; preds = %20
  call void @_ZNK4llvm5APInt11zextOrTruncEj(ptr dead_on_unwind nonnull writable sret(%"class.llvm::APInt") align 8 %3, ptr noundef nonnull align 8 dereferenceable(12) %1, i32 noundef %5) #20
  %22 = load i32, ptr %6, align 8
  %23 = icmp ult i32 %22, 65
  br i1 %23, label %_ZN4llvm5APIntD2Ev.exit.i, label %24

24:                                               ; preds = %21
  %25 = load ptr, ptr %1, align 8
  %26 = icmp eq ptr %25, null
  br i1 %26, label %_ZN4llvm5APIntD2Ev.exit.i, label %27

27:                                               ; preds = %24
  call void @_ZdaPv(ptr noundef nonnull %25) #22
  br label %_ZN4llvm5APIntD2Ev.exit.i

_ZN4llvm5APIntD2Ev.exit.i:                        ; preds = %27, %24, %21
  %28 = load i64, ptr %3, align 8
  store i64 %28, ptr %1, align 8
  %29 = getelementptr inbounds nuw i8, ptr %3, i64 8
  %30 = load i32, ptr %29, align 8
  store i32 %30, ptr %6, align 8
  br label %_ZL18CheckedZextOrTruncRN4llvm5APIntEj.exit

_ZL18CheckedZextOrTruncRN4llvm5APIntEj.exit:      ; preds = %_ZNK4llvm5APInt13getActiveBitsEv.exit.i, %20, %_ZN4llvm5APIntD2Ev.exit.i
  %.0.i = phi i1 [ false, %_ZNK4llvm5APInt13getActiveBitsEv.exit.i ], [ true, %_ZN4llvm5APIntD2Ev.exit.i ], [ true, %20 ]
  call void @llvm.lifetime.end.p0(i64 16, ptr nonnull %3)
  ret i1 %.0.i
}